target datalayout = "e-m:e-p270:32:32-p271:32:32-p272:64:64-i64:64-i128:128-f80:128-n8:16:32:64-S128"
target triple = "x86_64-unknown-linux-gnu"

%"class.google::protobuf::MessageLite" = type { ptr }
%"struct.google::protobuf::internal::ArenaStringPtr" = type { ptr }
%"class.net::SourceAddressTokens" = type { %"class.google::protobuf::MessageLite", %"struct.google::protobuf::internal::ArenaStringPtr", ptr, [1 x i32], i32, %"class.google::protobuf::RepeatedPtrField" }
%"class.google::protobuf::RepeatedPtrField" = type { %"class.google::protobuf::internal::RepeatedPtrFieldBase" }
%"class.google::protobuf::internal::RepeatedPtrFieldBase" = type { ptr, i32, i32, ptr }

@_ZTVN6google8protobuf11MessageLiteE = external unnamed_addr constant { [18 x ptr] }, align 8
@_ZN6google8protobuf8internal13empty_string_B5cxx11E = external global ptr, align 8

; Function Attrs: mustprogress nounwind uwtable
define linkonce_odr dso_local noundef nonnull align 8 dereferenceable(32) ptr @_ZNK6google8protobuf8internal14ArenaStringPtr10GetNoArenaEPKNSt7__cxx1112basic_stringIcSt11char_traitsIcESaIcEEE(ptr noundef nonnull align 8 dereferenceable(8) %this, ptr noundef %0) #0 comdat align 2 {
entry:
  %this.addr = alloca ptr, align 8
  %.addr = alloca ptr, align 8
  store ptr %this, ptr %this.addr, align 8
  store ptr %0, ptr %.addr, align 8
  %this1 = load ptr, ptr %this.addr, align 8
  %ptr_ = getelementptr inbounds %"struct.google::protobuf::internal::ArenaStringPtr", ptr %this1, i32 0, i32 0
  %1 = load ptr, ptr %ptr_, align 8
  ret ptr %1
}

; Function Attrs: mustprogress uwtable
define linkonce_odr dso_local noundef ptr @_ZN3net19SourceAddressTokens22mutable_unknown_fieldsB5cxx11Ev(ptr noundef nonnull align 8 dereferenceable(56) %this) #1 comdat align 2 {
entry:
  %this.addr = alloca ptr, align 8
  store ptr %this, ptr %this.addr, align 8
  %this1 = load ptr, ptr %this.addr, align 8
  %_unknown_fields_ = getelementptr inbounds %"class.net::SourceAddressTokens", ptr %this1, i32 0, i32 1
  %call = call noundef nonnull align 8 dereferenceable(32) ptr @_ZN6google8protobuf8internal27GetEmptyStringAlreadyInitedB5cxx11Ev()
  %call2 = call noundef ptr @_ZN6google8protobuf8internal14ArenaStringPtr14MutableNoArenaEPKNSt7__cxx1112basic_stringIcSt11char_traitsIcESaIcEEE(ptr noundef nonnull align 8 dereferenceable(8) %_unknown_fields_, ptr noundef %call)
  ret ptr %call2
}

; Function Attrs: mustprogress nounwind uwtable
define linkonce_odr dso_local noundef nonnull align 8 dereferenceable(32) ptr @_ZNK3net19SourceAddressTokens14unknown_fieldsB5cxx11Ev(ptr noundef nonnull align 8 dereferenceable(56) %this) #0 comdat align 2 {
entry:
  %this.addr = alloca ptr, align 8
  store ptr %this, ptr %this.addr, align 8
  %this1 = load ptr, ptr %this.addr, align 8
  %_unknown_fields_ = getelementptr inbounds %"class.net::SourceAddressTokens", ptr %this1, i32 0, i32 1
  %call = call noundef nonnull align 8 dereferenceable(32) ptr @_ZN6google8protobuf8internal27GetEmptyStringAlreadyInitedB5cxx11Ev()
  %call2 = call noundef nonnull align 8 dereferenceable(32) ptr @_ZNK6google8protobuf8internal14ArenaStringPtr10GetNoArenaEPKNSt7__cxx1112basic_stringIcSt11char_traitsIcESaIcEEE(ptr noundef nonnull align 8 dereferenceable(8) %_unknown_fields_, ptr noundef %call)
  ret ptr %call2
}

; Function Attrs: mustprogress uwtable
define linkonce_odr dso_local void @_ZN6google8protobuf16RepeatedPtrFieldIN3net18SourceAddressTokenEE9MergeFromERKS4_(ptr noundef nonnull align 8 dereferenceable(24) %this, ptr noundef nonnull align 8 dereferenceable(24) %other) #1 comdat align 2 {
entry:
  %this.addr = alloca ptr, align 8
  %other.addr = alloca ptr, align 8
  store ptr %this, ptr %this.addr, align 8
  store ptr %other, ptr %other.addr, align 8
  %this1 = load ptr, ptr %this.addr, align 8
  %0 = load ptr, ptr %other.addr, align 8
  call void @_ZN6google8protobuf8internal20RepeatedPtrFieldBase9MergeFromINS0_16RepeatedPtrFieldIN3net18SourceAddressTokenEE11TypeHandlerEEEvRKS2_(ptr noundef nonnull align 8 dereferenceable(24) %this1, ptr noundef nonnull align 8 dereferenceable(24) %0)
  ret void
}

; Function Attrs: mustprogress nounwind uwtable
define linkonce_odr dso_local void @_ZN6google8protobuf8internal14ArenaStringPtr16UnsafeSetDefaultEPKNSt7__cxx1112basic_stringIcSt11char_traitsIcESaIcEEE(ptr noundef nonnull align 8 dereferenceable(8) %this, ptr noundef %default_value) #0 comdat align 2 {
entry:
  %this.addr = alloca ptr, align 8
  %default_value.addr = alloca ptr, align 8
  store ptr %this, ptr %this.addr, align 8
  store ptr %default_value, ptr %default_value.addr, align 8
  %this1 = load ptr, ptr %this.addr, align 8
  %0 = load ptr, ptr %default_value.addr, align 8
  %ptr_ = getelementptr inbounds %"struct.google::protobuf::internal::ArenaStringPtr", ptr %this1, i32 0, i32 0
  store ptr %0, ptr %ptr_, align 8
  ret void
}

; Function Attrs: mustprogress nounwind uwtable
define linkonce_odr dso_local noundef nonnull align 8 dereferenceable(32) ptr @_ZN6google8protobuf8internal27GetEmptyStringAlreadyInitedB5cxx11Ev() #0 comdat {
entry:
  %0 = load ptr, ptr @_ZN6google8protobuf8internal13empty_string_B5cxx11E, align 8
  ret ptr %0
}

; Function Attrs: mustprogress nounwind uwtable
define linkonce_odr dso_local void @_ZN6google8protobuf8internal20RepeatedPtrFieldBaseC2Ev(ptr noundef nonnull align 8 dereferenceable(24) %this) unnamed_addr #0 comdat align 2 {
entry:
  %this.addr = alloca ptr, align 8
  store ptr %this, ptr %this.addr, align 8
  %this1 = load ptr, ptr %this.addr, align 8
  %arena_ = getelementptr inbounds %"class.google::protobuf::internal::RepeatedPtrFieldBase", ptr %this1, i32 0, i32 0
  store ptr null, ptr %arena_, align 8
  %current_size_ = getelementptr inbounds %"class.google::protobuf::internal::RepeatedPtrFieldBase", ptr %this1, i32 0, i32 1
  store i32 0, ptr %current_size_, align 8
  %total_size_ = getelementptr inbounds %"class.google::protobuf::internal::RepeatedPtrFieldBase", ptr %this1, i32 0, i32 2
  store i32 0, ptr %total_size_, align 4
  %rep_ = getelementptr inbounds %"class.google::protobuf::internal::RepeatedPtrFieldBase", ptr %this1, i32 0, i32 3
  store ptr null, ptr %rep_, align 8
  ret void
}

; Function Attrs: mustprogress uwtable
define dso_local void @_ZN3net19SourceAddressTokens9MergeFromERKS0_(ptr noundef nonnull align 8 dereferenceable(56) %this, ptr noundef nonnull align 8 dereferenceable(56) %from) #1 align 2 {
entry:
  %this.addr = alloca ptr, align 8
  %from.addr = alloca ptr, align 8
  store ptr %this, ptr %this.addr, align 8
  store ptr %from, ptr %from.addr, align 8
  %this1 = load ptr, ptr %this.addr, align 8
  %0 = load ptr, ptr %from.addr, align 8
  %cmp = icmp eq ptr %0, %this1
  br i1 %cmp, label %if.then, label %if.end

if.then:                                          ; preds = %entry
  call void @_ZN3net12_GLOBAL__N_113MergeFromFailEi(i32 noundef 693)
  br label %if.end

if.end:                                           ; preds = %if.then, %entry
  %tokens_ = getelementptr inbounds %"class.net::SourceAddressTokens", ptr %this1, i32 0, i32 5
  %1 = load ptr, ptr %from.addr, align 8
  %tokens_2 = getelementptr inbounds %"class.net::SourceAddressTokens", ptr %1, i32 0, i32 5
  call void @_ZN6google8protobuf16RepeatedPtrFieldIN3net18SourceAddressTokenEE9MergeFromERKS4_(ptr noundef nonnull align 8 dereferenceable(24) %tokens_, ptr noundef nonnull align 8 dereferenceable(24) %tokens_2)
  %2 = load ptr, ptr %from.addr, align 8
  %call = call noundef nonnull align 8 dereferenceable(32) ptr @_ZNK3net19SourceAddressTokens14unknown_fieldsB5cxx11Ev(ptr noundef nonnull align 8 dereferenceable(56) %2)
  %call3 = call noundef zeroext i1 @_ZNKSt7__cxx1112basic_stringIcSt11char_traitsIcESaIcEE5emptyEv(ptr noundef nonnull align 8 dereferenceable(32) %call) #12
  br i1 %call3, label %if.end8, label %if.then4

if.then4:                                         ; preds = %if.end
  %call5 = call noundef ptr @_ZN3net19SourceAddressTokens22mutable_unknown_fieldsB5cxx11Ev(ptr noundef nonnull align 8 dereferenceable(56) %this1)
  %3 = load ptr, ptr %from.addr, align 8
  %call6 = call noundef nonnull align 8 dereferenceable(32) ptr @_ZNK3net19SourceAddressTokens14unknown_fieldsB5cxx11Ev(ptr noundef nonnull align 8 dereferenceable(56) %3)
  %call7 = call noundef nonnull align 8 dereferenceable(32) ptr @_ZNSt7__cxx1112basic_stringIcSt11char_traitsIcESaIcEE6appendERKS4_(ptr noundef nonnull align 8 dereferenceable(32) %call5, ptr noundef nonnull align 8 dereferenceable(32) %call6)
  br label %if.end8

if.end8:                                          ; preds = %if.then4, %if.end
  ret void
}

; Function Attrs: mustprogress uwtable
define dso_local void @_ZN3net19SourceAddressTokens10SharedCtorEv(ptr noundef nonnull align 8 dereferenceable(56) %this) #1 align 2 {
entry:
  %this.addr = alloca ptr, align 8
  store ptr %this, ptr %this.addr, align 8
  %this1 = load ptr, ptr %this.addr, align 8
  %call = call noundef nonnull align 8 dereferenceable(32) ptr @_ZN6google8protobuf8internal14GetEmptyStringB5cxx11Ev()
  %_cached_size_ = getelementptr inbounds %"class.net::SourceAddressTokens", ptr %this1, i32 0, i32 4
  store i32 0, ptr %_cached_size_, align 4
  %_unknown_fields_ = getelementptr inbounds %"class.net::SourceAddressTokens", ptr %this1, i32 0, i32 1
  %call2 = call noundef nonnull align 8 dereferenceable(32) ptr @_ZN6google8protobuf8internal27GetEmptyStringAlreadyInitedB5cxx11Ev()
  call void @_ZN6google8protobuf8internal14ArenaStringPtr16UnsafeSetDefaultEPKNSt7__cxx1112basic_stringIcSt11char_traitsIcESaIcEEE(ptr noundef nonnull align 8 dereferenceable(8) %_unknown_fields_, ptr noundef %call2)
  %_has_bits_ = getelementptr inbounds %"class.net::SourceAddressTokens", ptr %this1, i32 0, i32 3
  %arraydecay = getelementptr inbounds [1 x i32], ptr %_has_bits_, i64 0, i64 0
  call void @llvm.memset.p0.i64(ptr align 8 %arraydecay, i8 0, i64 4, i1 false)
  ret void
}

; Function Attrs: mustprogress uwtable
define linkonce_odr dso_local void @_ZN6google8protobuf16RepeatedPtrFieldIN3net18SourceAddressTokenEEC2Ev(ptr noundef nonnull align 8 dereferenceable(24) %this) unnamed_addr #1 comdat align 2 {
entry:
  %this.addr = alloca ptr, align 8
  store ptr %this, ptr %this.addr, align 8
  %this1 = load ptr, ptr %this.addr, align 8
  call void @_ZN6google8protobuf8internal20RepeatedPtrFieldBaseC2Ev(ptr noundef nonnull align 8 dereferenceable(24) %this1)
  ret void
}

; Function Attrs: mustprogress nounwind uwtable
define linkonce_odr dso_local void @_ZN6google8protobuf11MessageLiteC2Ev(ptr noundef nonnull align 8 dereferenceable(8) %this) unnamed_addr #0 comdat align 2 {
entry:
  %this.addr = alloca ptr, align 8
  store ptr %this, ptr %this.addr, align 8
  %this1 = load ptr, ptr %this.addr, align 8
  store ptr getelementptr inbounds ({ [18 x ptr] }, ptr @_ZTVN6google8protobuf11MessageLiteE, i32 0, i32 0, i32 2), ptr %this1, align 8
  ret void
}

; Function Attrs: mustprogress uwtable
define dso_local void @_ZN3net19SourceAddressTokensC2ERKS0_(ptr noundef nonnull align 8 dereferenceable(56) %this, ptr noundef nonnull align 8 dereferenceable(56) %from) unnamed_addr #1 align 2 personality ptr @__gxx_personality_v0 {
entry:
  %this.addr = alloca ptr, align 8
  %from.addr = alloca ptr, align 8
  %exn.slot = alloca ptr, align 8
  %ehselector.slot = alloca i32, align 4
  store ptr %this, ptr %this.addr, align 8
  store ptr %from, ptr %from.addr, align 8
  %this1 = load ptr, ptr %this.addr, align 8
  call void @_ZN6google8protobuf11MessageLiteC2Ev(ptr noundef nonnull align 8 dereferenceable(8) %this1)
  store ptr getelementptr inbounds ({ [18 x ptr] }, ptr @_ZTVN3net19SourceAddressTokensE, i32 0, i32 0, i32 2), ptr %this1, align 8
  %_arena_ptr_ = getelementptr inbounds %"class.net::SourceAddressTokens", ptr %this1, i32 0, i32 2
  store ptr null, ptr %_arena_ptr_, align 8
  %tokens_ = getelementptr inbounds %"class.net::SourceAddressTokens", ptr %this1, i32 0, i32 5
  invoke void @_ZN6google8protobuf16RepeatedPtrFieldIN3net18SourceAddressTokenEEC2Ev(ptr noundef nonnull align 8 dereferenceable(24) %tokens_)
          to label %invoke.cont unwind label %lpad

invoke.cont:                                      ; preds = %entry
  invoke void @_ZN3net19SourceAddressTokens10SharedCtorEv(ptr noundef nonnull align 8 dereferenceable(56) %this1)
          to label %invoke.cont3 unwind label %lpad2

invoke.cont3:                                     ; preds = %invoke.cont
  %0 = load ptr, ptr %from.addr, align 8
  invoke void @_ZN3net19SourceAddressTokens9MergeFromERKS0_(ptr noundef nonnull align 8 dereferenceable(56) %this1, ptr noundef nonnull align 8 dereferenceable(56) %0)
          to label %invoke.cont4 unwind label %lpad2

invoke.cont4:                                     ; preds = %invoke.cont3
  ret void

lpad:                                             ; preds = %entry
  %1 = landingpad { ptr, i32 }
          cleanup
  %2 = extractvalue { ptr, i32 } %1, 0
  store ptr %2, ptr %exn.slot, align 8
  %3 = extractvalue { ptr, i32 } %1, 1
  store i32 %3, ptr %ehselector.slot, align 4
  br label %ehcleanup

lpad2:                                            ; preds = %invoke.cont3, %invoke.cont
  %4 = landingpad { ptr, i32 }
          cleanup
  %5 = extractvalue { ptr, i32 } %4, 0
  store ptr %5, ptr %exn.slot, align 8
  %6 = extractvalue { ptr, i32 } %4, 1
  store i32 %6, ptr %ehselector.slot, align 4
  call void @_ZN6google8protobuf16RepeatedPtrFieldIN3net18SourceAddressTokenEED2Ev(ptr noundef nonnull align 8 dereferenceable(24) %tokens_) #12
  br label %ehcleanup

ehcleanup:                                        ; preds = %lpad2, %lpad
  call void @_ZN6google8protobuf11MessageLiteD2Ev(ptr noundef nonnull align 8 dereferenceable(8) %this1) #12
  br label %eh.resume

eh.resume:                                        ; preds = %ehcleanup
  %exn = load ptr, ptr %exn.slot, align 8
  %sel = load i32, ptr %ehselector.slot, align 4
  %lpad.val = insertvalue { ptr, i32 } poison, ptr %exn, 0
  %lpad.val5 = insertvalue { ptr, i32 } %lpad.val, i32 %sel, 1
  resume { ptr, i32 } %lpad.val5
}