; Function Attrs: mustprogress uwtable
define dso_local void @_ZN3net19SourceAddressTokensC2ERKS0_(ptr noundef nonnull align 8 dereferenceable(56) %this, ptr noundef nonnull align 8 dereferenceable(56) %from) unnamed_addr #1 align 2 personality ptr @__gxx_personality_v0 {
invoke.cont:
  store ptr getelementptr inbounds ({ [18 x ptr] }, ptr @_ZTVN3net19SourceAddressTokensE, i64 0, i32 0, i64 2), ptr %this, align 8
  %_arena_ptr_ = getelementptr inbounds i8, ptr %this, i64 16
  store ptr null, ptr %_arena_ptr_, align 8
  %tokens_ = getelementptr inbounds i8, ptr %this, i64 32
  tail call void @llvm.memset.p0.i64(ptr noundef nonnull align 8 dereferenceable(24) %tokens_, i8 0, i64 24, i1 false)
  %call.i2 = invoke noundef nonnull align 8 dereferenceable(32) ptr @_ZN6google8protobuf8internal14GetEmptyStringB5cxx11Ev()
          to label %invoke.cont3 unwind label %lpad2

invoke.cont3:                                     ; preds = %invoke.cont
  %_cached_size_.i = getelementptr inbounds i8, ptr %this, i64 28
  store i32 0, ptr %_cached_size_.i, align 4
  %_unknown_fields_.i = getelementptr inbounds i8, ptr %this, i64 8
  %0 = load ptr, ptr @_ZN6google8protobuf8internal13empty_string_B5cxx11E, align 8
  store ptr %0, ptr %_unknown_fields_.i, align 8
  %_has_bits_.i = getelementptr inbounds i8, ptr %this, i64 24
  store i32 0, ptr %_has_bits_.i, align 8
  %cmp.i = icmp eq ptr %from, %this
  br i1 %cmp.i, label %if.then.i, label %if.end.i

if.then.i:                                        ; preds = %invoke.cont3
  invoke fastcc void @_ZN3net12_GLOBAL__N_113MergeFromFailEi(i32 noundef 693)
          to label %if.end.i unwind label %lpad2

if.end.i:                                         ; preds = %if.then.i, %invoke.cont3
  %tokens_2.i = getelementptr inbounds i8, ptr %from, i64 32
  invoke void @_ZN6google8protobuf8internal20RepeatedPtrFieldBase9MergeFromINS0_16RepeatedPtrFieldIN3net18SourceAddressTokenEE11TypeHandlerEEEvRKS2_(ptr noundef nonnull align 8 dereferenceable(24) %tokens_, ptr noundef nonnull align 8 dereferenceable(24) %tokens_2.i)
          to label %.noexc3 unwind label %lpad2

.noexc3:                                          ; preds = %if.end.i
  %_unknown_fields_.i.i = getelementptr inbounds i8, ptr %from, i64 8
  %1 = load ptr, ptr %_unknown_fields_.i.i, align 8
  %call3.i = tail call noundef zeroext i1 @_ZNKSt7__cxx1112basic_stringIcSt11char_traitsIcESaIcEE5emptyEv(ptr noundef nonnull align 8 dereferenceable(32) %1) #14
  br i1 %call3.i, label %invoke.cont4, label %if.then4.i

if.then4.i:                                       ; preds = %.noexc3
  %2 = load ptr, ptr @_ZN6google8protobuf8internal13empty_string_B5cxx11E, align 8
  %call2.i.i4 = invoke noundef ptr @_ZN6google8protobuf8internal14ArenaStringPtr14MutableNoArenaEPKNSt7__cxx1112basic_stringIcSt11char_traitsIcESaIcEEE(ptr noundef nonnull align 8 dereferenceable(8) %_unknown_fields_.i, ptr noundef nonnull %2)
          to label %call2.i.i.noexc unwind label %lpad2

call2.i.i.noexc:                                  ; preds = %if.then4.i
  %3 = load ptr, ptr %_unknown_fields_.i.i, align 8
  %call7.i5 = invoke noundef nonnull align 8 dereferenceable(32) ptr @_ZNSt7__cxx1112basic_stringIcSt11char_traitsIcESaIcEE6appendERKS4_(ptr noundef nonnull align 8 dereferenceable(32) %call2.i.i4, ptr noundef nonnull align 8 dereferenceable(32) %3)
          to label %invoke.cont4 unwind label %lpad2

invoke.cont4:                                     ; preds = %.noexc3, %call2.i.i.noexc
  ret void

lpad2:                                            ; preds = %call2.i.i.noexc, %if.then4.i, %if.end.i, %if.then.i, %invoke.cont
  %4 = landingpad { ptr, i32 }
          cleanup
  tail call void @_ZN6google8protobuf16RepeatedPtrFieldIN3net18SourceAddressTokenEED2Ev(ptr noundef nonnull align 8 dereferenceable(24) %tokens_) #14
  tail call void @_ZN6google8protobuf11MessageLiteD2Ev(ptr noundef nonnull align 8 dereferenceable(8) %this) #14
  resume { ptr, i32 } %4
}